target datalayout = "e-m:e-p270:32:32-p271:32:32-p272:64:64-i64:64-i128:128-f80:128-n8:16:32:64-S128"
target triple = "x86_64-pc-linux-gnu"

@evsig_base = internal global ptr null, align 8
@evsig_base_fd = internal global i32 -1, align 4
@.str.11 = private unnamed_addr constant [52 x i8] c"%s: received signal %d, but have no base configured\00", align 1
@__func__.evsig_handler = private unnamed_addr constant [14 x i8] c"evsig_handler\00", align 1
@.str.12 = private unnamed_addr constant [14 x i8] c"%s: write: %s\00", align 1

; Function Attrs: nounwind uwtable
define internal void @evsig_handler(i32 noundef %0) #0 {
  %2 = alloca i32, align 4
  %3 = alloca i32, align 4
  %4 = alloca i8, align 1
  %5 = alloca i32, align 4
  store i32 %0, ptr %2, align 4
  call void @llvm.lifetime.start.p0(i64 4, ptr %3) #8
  %6 = call ptr @__errno_location() #9
  %7 = load i32, ptr %6, align 4
  store i32 %7, ptr %3, align 4
  call void @llvm.lifetime.start.p0(i64 1, ptr %4) #8
  %8 = load ptr, ptr @evsig_base, align 8
  %9 = icmp eq ptr %8, null
  br i1 %9, label %10, label %12

10:                                               ; preds = %1
  %11 = load i32, ptr %2, align 4
  call void (ptr, ...) @event_warnx(ptr noundef @.str.11, ptr noundef @__func__.evsig_handler, i32 noundef %11)
  store i32 1, ptr %5, align 4
  br label %33

12:                                               ; preds = %1
  %13 = load i32, ptr %2, align 4
  %14 = trunc i32 %13 to i8
  store i8 %14, ptr %4, align 1
  br label %15

15:                                               ; preds = %24, %12
  %16 = call ptr @__errno_location() #9
  store i32 11, ptr %16, align 4
  %17 = load i32, ptr @evsig_base_fd, align 4
  %18 = call i64 @write(i32 noundef %17, ptr noundef %4, i64 noundef 1)
  %19 = icmp sge i64 0, %18
  br i1 %19, label %20, label %29

20:                                               ; preds = %15
  %21 = call ptr @__errno_location() #9
  %22 = load i32, ptr %21, align 4
  %23 = icmp eq i32 %22, 4
  br i1 %23, label %24, label %25

24:                                               ; preds = %20
  br label %15

25:                                               ; preds = %20
  %26 = call ptr @__errno_location() #9
  %27 = load i32, ptr %26, align 4
  %28 = call ptr @strerror(i32 noundef %27) #8
  call void (ptr, ...) @event_warnx(ptr noundef @.str.12, ptr noundef @__func__.evsig_handler, ptr noundef %28)
  br label %29

29:                                               ; preds = %25, %15
  br label %30

30:                                               ; preds = %29
  %31 = load i32, ptr %3, align 4
  %32 = call ptr @__errno_location() #9
  store i32 %31, ptr %32, align 4
  store i32 0, ptr %5, align 4
  br label %33

33:                                               ; preds = %30, %10
  call void @llvm.lifetime.end.p0(i64 1, ptr %4) #8
  call void @llvm.lifetime.end.p0(i64 4, ptr %3) #8
  %34 = load i32, ptr %5, align 4
  switch i32 %34, label %36 [
    i32 0, label %35
    i32 1, label %35
  ]

35:                                               ; preds = %33, %33
  ret void

36:                                               ; preds = %33
  unreachable
}