; Function Attrs: nounwind uwtable
define internal void @evsig_handler(i32 noundef %0) #0 {
  %2 = alloca i8, align 1
  %3 = tail call ptr @__errno_location() #10
  %4 = load i32, ptr %3, align 4
  call void @llvm.lifetime.start.p0(i64 1, ptr nonnull %2) #8
  %5 = load ptr, ptr @evsig_base, align 8
  %6 = icmp eq ptr %5, null
  br i1 %6, label %7, label %8

7:                                                ; preds = %1
  tail call void (ptr, ...) @event_warnx(ptr noundef nonnull @.str.11, ptr noundef nonnull @__func__.evsig_handler, i32 noundef %0) #8
  br label %19

8:                                                ; preds = %1
  %9 = trunc i32 %0 to i8
  store i8 %9, ptr %2, align 1
  br label %10

10:                                               ; preds = %14, %8
  store i32 11, ptr %3, align 4
  %11 = load i32, ptr @evsig_base_fd, align 4
  %12 = call i64 @write(i32 noundef %11, ptr noundef nonnull %2, i64 noundef 1) #8
  %13 = icmp slt i64 %12, 1
  br i1 %13, label %14, label %.loopexit

14:                                               ; preds = %10
  %15 = load i32, ptr %3, align 4
  %16 = icmp eq i32 %15, 4
  br i1 %16, label %10, label %17

17:                                               ; preds = %14
  %18 = tail call ptr @strerror(i32 noundef %15) #8
  tail call void (ptr, ...) @event_warnx(ptr noundef nonnull @.str.12, ptr noundef nonnull @__func__.evsig_handler, ptr noundef %18) #8
  br label %.loopexit

.loopexit:                                        ; preds = %10, %17
  store i32 %4, ptr %3, align 4
  br label %19

19:                                               ; preds = %.loopexit, %7
  call void @llvm.lifetime.end.p0(i64 1, ptr nonnull %2) #8
  ret void
}